target datalayout = "e-m:e-p270:32:32-p271:32:32-p272:64:64-i64:64-i128:128-f80:128-n8:16:32:64-S128"
target triple = "x86_64-pc-linux-gnu"

%struct.CBuf = type { ptr, i64 }
%struct.CSzFolder = type { ptr, ptr, ptr, ptr, i32, i32, i32, i32, i32, i32 }
%struct.CSzAr = type { ptr, ptr, ptr, ptr, ptr, i32, i32, i32 }
%struct.CSzArEx = type { %struct.CSzAr, i64, i64, ptr, ptr, ptr, ptr, ptr, %struct.CBuf }

; Function Attrs: nounwind uwtable
define i32 @SzArEx_GetFolderFullPackSize(ptr noundef %0, i32 noundef %1, ptr noundef %2) #0 {
  %4 = alloca i32, align 4
  %5 = alloca ptr, align 8
  %6 = alloca i32, align 4
  %7 = alloca ptr, align 8
  %8 = alloca i32, align 4
  %9 = alloca ptr, align 8
  %10 = alloca i64, align 8
  %11 = alloca i32, align 4
  %12 = alloca i64, align 8
  store ptr %0, ptr %5, align 8
  store i32 %1, ptr %6, align 4
  store ptr %2, ptr %7, align 8
  %13 = load ptr, ptr %5, align 8
  %14 = getelementptr inbounds %struct.CSzArEx, ptr %13, i32 0, i32 3
  %15 = load ptr, ptr %14, align 8
  %16 = load i32, ptr %6, align 4
  %17 = zext i32 %16 to i64
  %18 = getelementptr inbounds i32, ptr %15, i64 %17
  %19 = load i32, ptr %18, align 4
  store i32 %19, ptr %8, align 4
  %20 = load ptr, ptr %5, align 8
  %21 = getelementptr inbounds %struct.CSzArEx, ptr %20, i32 0, i32 0
  %22 = getelementptr inbounds %struct.CSzAr, ptr %21, i32 0, i32 3
  %23 = load ptr, ptr %22, align 8
  %24 = load i32, ptr %6, align 4
  %25 = zext i32 %24 to i64
  %26 = getelementptr inbounds %struct.CSzFolder, ptr %23, i64 %25
  store ptr %26, ptr %9, align 8
  store i64 0, ptr %10, align 8
  store i32 0, ptr %11, align 4
  br label %27

27:                                               ; preds = %52, %3
  %28 = load i32, ptr %11, align 4
  %29 = load ptr, ptr %9, align 8
  %30 = getelementptr inbounds %struct.CSzFolder, ptr %29, i32 0, i32 6
  %31 = load i32, ptr %30, align 8
  %32 = icmp ult i32 %28, %31
  br i1 %32, label %33, label %55

33:                                               ; preds = %27
  %34 = load i64, ptr %10, align 8
  %35 = load ptr, ptr %5, align 8
  %36 = getelementptr inbounds %struct.CSzArEx, ptr %35, i32 0, i32 0
  %37 = getelementptr inbounds %struct.CSzAr, ptr %36, i32 0, i32 0
  %38 = load ptr, ptr %37, align 8
  %39 = load i32, ptr %8, align 4
  %40 = load i32, ptr %11, align 4
  %41 = add i32 %39, %40
  %42 = zext i32 %41 to i64
  %43 = getelementptr inbounds i64, ptr %38, i64 %42
  %44 = load i64, ptr %43, align 8
  %45 = add i64 %34, %44
  store i64 %45, ptr %12, align 8
  %46 = load i64, ptr %12, align 8
  %47 = load i64, ptr %10, align 8
  %48 = icmp ult i64 %46, %47
  br i1 %48, label %49, label %50

49:                                               ; preds = %33
  store i32 11, ptr %4, align 4
  br label %58

50:                                               ; preds = %33
  %51 = load i64, ptr %12, align 8
  store i64 %51, ptr %10, align 8
  br label %52

52:                                               ; preds = %50
  %53 = load i32, ptr %11, align 4
  %54 = add i32 %53, 1
  store i32 %54, ptr %11, align 4
  br label %27

55:                                               ; preds = %27
  %56 = load i64, ptr %10, align 8
  %57 = load ptr, ptr %7, align 8
  store i64 %56, ptr %57, align 8
  store i32 0, ptr %4, align 4
  br label %58

58:                                               ; preds = %55, %49
  %59 = load i32, ptr %4, align 4
  ret i32 %59
}