; Function Attrs: nofree norecurse nosync nounwind memory(read, argmem: readwrite, inaccessiblemem: none) uwtable
define range(i32 0, 12) i32 @SzArEx_GetFolderFullPackSize(ptr noundef readonly captures(none) %0, i32 noundef %1, ptr noundef writeonly captures(none) %2) local_unnamed_addr #5 {
  %4 = getelementptr inbounds nuw i8, ptr %0, i64 72
  %5 = load ptr, ptr %4, align 8
  %6 = zext i32 %1 to i64
  %7 = getelementptr inbounds nuw i32, ptr %5, i64 %6
  %8 = load i32, ptr %7, align 4
  %9 = getelementptr inbounds nuw i8, ptr %0, i64 24
  %10 = load ptr, ptr %9, align 8
  %11 = getelementptr inbounds nuw %struct.CSzFolder, ptr %10, i64 %6, i32 6
  %12 = load i32, ptr %11, align 8
  %.not = icmp eq i32 %12, 0
  br i1 %.not, label %._crit_edge, label %.lr.ph

.lr.ph:                                           ; preds = %3
  %13 = load ptr, ptr %0, align 8
  %wide.trip.count = zext i32 %12 to i64
  br label %15

14:                                               ; preds = %15
  %indvars.iv.next = add nuw nsw i64 %indvars.iv, 1
  %exitcond.not = icmp eq i64 %indvars.iv.next, %wide.trip.count
  br i1 %exitcond.not, label %._crit_edge, label %15

15:                                               ; preds = %.lr.ph, %14
  %indvars.iv = phi i64 [ 0, %.lr.ph ], [ %indvars.iv.next, %14 ]
  %.01720 = phi i64 [ 0, %.lr.ph ], [ %21, %14 ]
  %16 = trunc nuw i64 %indvars.iv to i32
  %17 = add i32 %8, %16
  %18 = zext i32 %17 to i64
  %19 = getelementptr inbounds nuw i64, ptr %13, i64 %18
  %20 = load i64, ptr %19, align 8
  %21 = add i64 %20, %.01720
  %22 = icmp ult i64 %21, %.01720
  br i1 %22, label %.loopexit, label %14

._crit_edge:                                      ; preds = %14, %3
  %.017.lcssa = phi i64 [ 0, %3 ], [ %21, %14 ]
  store i64 %.017.lcssa, ptr %2, align 8
  br label %.loopexit

.loopexit:                                        ; preds = %15, %._crit_edge
  %.0 = phi i32 [ 0, %._crit_edge ], [ 11, %15 ]
  ret i32 %.0
}